target datalayout = "e-m:e-p270:32:32-p271:32:32-p272:64:64-i64:64-i128:128-f80:128-n8:16:32:64-S128"
target triple = "x86_64-pc-linux-gnu"

%"class.std::__cxx11::basic_string" = type { %"struct.std::__cxx11::basic_string<char>::_Alloc_hider", i64, %union.anon }
%"struct.std::__cxx11::basic_string<char>::_Alloc_hider" = type { ptr }
%union.anon = type { i64, [8 x i8] }

; Function Attrs: mustprogress uwtable
define dso_local noundef zeroext i1 @_ZN22cmCTestCoverageHandler10GetNextIntERKNSt7__cxx1112basic_stringIcSt11char_traitsIcESaIcEEERmRi(ptr noundef nonnull align 8 dereferenceable(576) %0, ptr noundef nonnull align 8 dereferenceable(32) %1, ptr noundef nonnull align 8 dereferenceable(8) %2, ptr noundef nonnull align 4 dereferenceable(4) %3) #4 align 2 {
  %5 = alloca i1, align 1
  %6 = alloca ptr, align 8
  %7 = alloca ptr, align 8
  %8 = alloca ptr, align 8
  %9 = alloca ptr, align 8
  %10 = alloca i64, align 8
  %11 = alloca %"class.std::__cxx11::basic_string", align 8
  store ptr %0, ptr %6, align 8
  store ptr %1, ptr %7, align 8
  store ptr %2, ptr %8, align 8
  store ptr %3, ptr %9, align 8
  %12 = load ptr, ptr %8, align 8
  %13 = load i64, ptr %12, align 8
  store i64 %13, ptr %10, align 8
  %14 = load ptr, ptr %7, align 8
  %15 = load i64, ptr %10, align 8
  %16 = call noundef i64 @_ZNKSt7__cxx1112basic_stringIcSt11char_traitsIcESaIcEE4findEcm(ptr noundef nonnull align 8 dereferenceable(32) %14, i8 noundef signext 44, i64 noundef %15) #3
  %17 = load ptr, ptr %8, align 8
  store i64 %16, ptr %17, align 8
  %18 = load ptr, ptr %7, align 8
  %19 = load i64, ptr %10, align 8
  %20 = load ptr, ptr %8, align 8
  %21 = load i64, ptr %20, align 8
  call void @_ZNKSt7__cxx1112basic_stringIcSt11char_traitsIcESaIcEE6substrEmm(ptr dead_on_unwind writable sret(%"class.std::__cxx11::basic_string") align 8 %11, ptr noundef nonnull align 8 dereferenceable(32) %18, i64 noundef %19, i64 noundef %21)
  %22 = call noundef ptr @_ZNKSt7__cxx1112basic_stringIcSt11char_traitsIcESaIcEE5c_strEv(ptr noundef nonnull align 8 dereferenceable(32) %11) #3
  %23 = call i32 @atoi(ptr noundef %22) #16
  %24 = load ptr, ptr %9, align 8
  store i32 %23, ptr %24, align 4
  call void @_ZNSt7__cxx1112basic_stringIcSt11char_traitsIcESaIcEED1Ev(ptr noundef nonnull align 8 dereferenceable(32) %11) #3
  %25 = load ptr, ptr %8, align 8
  %26 = load i64, ptr %25, align 8
  %27 = icmp eq i64 %26, -1
  br i1 %27, label %28, label %29

28:                                               ; preds = %4
  store i1 true, ptr %5, align 1
  br label %33

29:                                               ; preds = %4
  %30 = load ptr, ptr %8, align 8
  %31 = load i64, ptr %30, align 8
  %32 = add i64 %31, 1
  store i64 %32, ptr %30, align 8
  store i1 true, ptr %5, align 1
  br label %33

33:                                               ; preds = %29, %28
  %34 = load i1, ptr %5, align 1
  ret i1 %34
}