; Function Attrs: mustprogress uwtable
define dso_local noundef zeroext i1 @_ZN22cmCTestCoverageHandler10GetNextIntERKNSt7__cxx1112basic_stringIcSt11char_traitsIcESaIcEEERmRi(ptr nocapture noundef nonnull readnone align 8 dereferenceable(576) %0, ptr noundef nonnull align 8 dereferenceable(32) %1, ptr nocapture noundef nonnull align 8 dereferenceable(8) %2, ptr nocapture noundef nonnull writeonly align 4 dereferenceable(4) %3) local_unnamed_addr #3 align 2 {
  %5 = alloca %"class.std::__cxx11::basic_string", align 8
  %6 = load i64, ptr %2, align 8
  %7 = tail call noundef i64 @_ZNKSt7__cxx1112basic_stringIcSt11char_traitsIcESaIcEE4findEcm(ptr noundef nonnull align 8 dereferenceable(32) %1, i8 noundef signext 44, i64 noundef %6) #19
  store i64 %7, ptr %2, align 8
  call void @_ZNKSt7__cxx1112basic_stringIcSt11char_traitsIcESaIcEE6substrEmm(ptr dead_on_unwind nonnull writable sret(%"class.std::__cxx11::basic_string") align 8 %5, ptr noundef nonnull align 8 dereferenceable(32) %1, i64 noundef %6, i64 noundef %7)
  %8 = call noundef ptr @_ZNKSt7__cxx1112basic_stringIcSt11char_traitsIcESaIcEE5c_strEv(ptr noundef nonnull align 8 dereferenceable(32) %5) #19
  %9 = call i32 @atoi(ptr nocapture noundef %8) #23
  store i32 %9, ptr %3, align 4
  call void @_ZNSt7__cxx1112basic_stringIcSt11char_traitsIcESaIcEED1Ev(ptr noundef nonnull align 8 dereferenceable(32) %5) #19
  %10 = load i64, ptr %2, align 8
  %11 = icmp eq i64 %10, -1
  br i1 %11, label %14, label %12

12:                                               ; preds = %4
  %13 = add nuw i64 %10, 1
  store i64 %13, ptr %2, align 8
  br label %14

14:                                               ; preds = %4, %12
  ret i1 true
}